target datalayout = "e-m:e-p270:32:32-p271:32:32-p272:64:64-i64:64-i128:128-f80:128-n8:16:32:64-S128"
target triple = "x86_64-pc-linux-gnu"

%struct.sctp_setprim = type <{ i32, %struct.sockaddr_storage }>
%struct.sockaddr_storage = type { i16, [118 x i8], i64 }

@.str.4 = private unnamed_addr constant [25 x i8] c"java/net/SocketException\00", align 1
@.str.20 = private unnamed_addr constant [38 x i8] c"sun.nio.ch.SctpNet.getPrimAddrOption0\00", align 1

; Function Attrs: nounwind uwtable
define ptr @Java_sun_nio_ch_sctp_SctpNet_getPrimAddrOption0(ptr noundef %0, ptr noundef %1, i32 noundef %2, i32 noundef %3) #0 {
  %5 = alloca ptr, align 8
  %6 = alloca ptr, align 8
  %7 = alloca ptr, align 8
  %8 = alloca i32, align 4
  %9 = alloca i32, align 4
  %10 = alloca %struct.sctp_setprim, align 4
  %11 = alloca i32, align 4
  store ptr %0, ptr %6, align 8
  store ptr %1, ptr %7, align 8
  store i32 %2, ptr %8, align 4
  store i32 %3, ptr %9, align 4
  store i32 132, ptr %11, align 4
  %12 = load i32, ptr %9, align 4
  %13 = getelementptr inbounds %struct.sctp_setprim, ptr %10, i32 0, i32 0
  store i32 %12, ptr %13, align 4
  %14 = load i32, ptr %8, align 4
  %15 = call i32 @getsockopt(i32 noundef %14, i32 noundef 132, i32 noundef 6, ptr noundef %10, ptr noundef %11) #7
  %16 = icmp slt i32 %15, 0
  br i1 %16, label %17, label %19

17:                                               ; preds = %4
  %18 = load ptr, ptr %6, align 8
  call void @JNU_ThrowByNameWithLastError(ptr noundef %18, ptr noundef @.str.4, ptr noundef @.str.20)
  store ptr null, ptr %5, align 8
  br label %23

19:                                               ; preds = %4
  %20 = load ptr, ptr %6, align 8
  %21 = getelementptr inbounds %struct.sctp_setprim, ptr %10, i32 0, i32 1
  %22 = call ptr @SockAddrToInetSocketAddress(ptr noundef %20, ptr noundef %21)
  store ptr %22, ptr %5, align 8
  br label %23

23:                                               ; preds = %19, %17
  %24 = load ptr, ptr %5, align 8
  ret ptr %24
}