; Function Attrs: nounwind uwtable
define ptr @Java_sun_nio_ch_sctp_SctpNet_getPrimAddrOption0(ptr noundef %0, ptr nocapture noundef readnone %1, i32 noundef %2, i32 noundef %3) local_unnamed_addr #1 {
  %5 = alloca %struct.sctp_setprim, align 4
  %6 = alloca i32, align 4
  store i32 132, ptr %6, align 4
  store i32 %3, ptr %5, align 4
  %7 = call i32 @getsockopt(i32 noundef %2, i32 noundef 132, i32 noundef 6, ptr noundef nonnull %5, ptr noundef nonnull %6) #10
  %8 = icmp slt i32 %7, 0
  br i1 %8, label %9, label %10

9:                                                ; preds = %4
  call void @JNU_ThrowByNameWithLastError(ptr noundef %0, ptr noundef nonnull @.str.4, ptr noundef nonnull @.str.20) #10
  br label %13

10:                                               ; preds = %4
  %11 = getelementptr inbounds i8, ptr %5, i64 4
  %12 = call ptr @SockAddrToInetSocketAddress(ptr noundef %0, ptr noundef nonnull %11)
  br label %13

13:                                               ; preds = %10, %9
  %.0 = phi ptr [ null, %9 ], [ %12, %10 ]
  ret ptr %.0
}